target datalayout = "e-m:e-p270:32:32-p271:32:32-p272:64:64-i64:64-i128:128-f80:128-n8:16:32:64-S128"
target triple = "x86_64-pc-linux-gnu"

%struct.Ivy_Obj_t_ = type { i32, i32, i32, i32, ptr, ptr, ptr, ptr, ptr, ptr, ptr, ptr }

; Function Attrs: nounwind uwtable
define internal ptr @Ivy_Regular(ptr noundef %0) #0 {
  %2 = alloca ptr, align 8
  store ptr %0, ptr %2, align 8
  %3 = load ptr, ptr %2, align 8
  %4 = ptrtoint ptr %3 to i64
  %5 = and i64 %4, -2
  %6 = inttoptr i64 %5 to ptr
  ret ptr %6
}

; Function Attrs: nounwind uwtable
define internal ptr @Ivy_ObjFanin1(ptr noundef %0) #0 {
  %2 = alloca ptr, align 8
  store ptr %0, ptr %2, align 8
  %3 = load ptr, ptr %2, align 8
  %4 = getelementptr inbounds %struct.Ivy_Obj_t_, ptr %3, i32 0, i32 5
  %5 = load ptr, ptr %4, align 8
  %6 = call ptr @Ivy_Regular(ptr noundef %5)
  ret ptr %6
}

; Function Attrs: nounwind uwtable
define internal ptr @Ivy_ObjFanin0(ptr noundef %0) #0 {
  %2 = alloca ptr, align 8
  store ptr %0, ptr %2, align 8
  %3 = load ptr, ptr %2, align 8
  %4 = getelementptr inbounds %struct.Ivy_Obj_t_, ptr %3, i32 0, i32 4
  %5 = load ptr, ptr %4, align 8
  %6 = call ptr @Ivy_Regular(ptr noundef %5)
  ret ptr %6
}

; Function Attrs: nounwind uwtable
define internal i32 @Ivy_ObjIsBuf(ptr noundef %0) #0 {
  %2 = alloca ptr, align 8
  store ptr %0, ptr %2, align 8
  %3 = load ptr, ptr %2, align 8
  %4 = getelementptr inbounds %struct.Ivy_Obj_t_, ptr %3, i32 0, i32 2
  %5 = load i32, ptr %4, align 8
  %6 = and i32 %5, 15
  %7 = icmp eq i32 %6, 7
  %8 = zext i1 %7 to i32
  ret i32 %8
}

; Function Attrs: nounwind uwtable
define internal i32 @Ivy_ObjIsCi(ptr noundef %0) #0 {
  %2 = alloca ptr, align 8
  store ptr %0, ptr %2, align 8
  %3 = load ptr, ptr %2, align 8
  %4 = getelementptr inbounds %struct.Ivy_Obj_t_, ptr %3, i32 0, i32 2
  %5 = load i32, ptr %4, align 8
  %6 = and i32 %5, 15
  %7 = icmp eq i32 %6, 1
  br i1 %7, label %14, label %8

8:                                                ; preds = %1
  %9 = load ptr, ptr %2, align 8
  %10 = getelementptr inbounds %struct.Ivy_Obj_t_, ptr %9, i32 0, i32 2
  %11 = load i32, ptr %10, align 8
  %12 = and i32 %11, 15
  %13 = icmp eq i32 %12, 4
  br label %14

14:                                               ; preds = %8, %1
  %15 = phi i1 [ true, %1 ], [ %13, %8 ]
  %16 = zext i1 %15 to i32
  ret i32 %16
}

; Function Attrs: nounwind uwtable
define i32 @Ivy_ManFindBoolCutCost(ptr noundef %0) #0 {
  %2 = alloca i32, align 4
  %3 = alloca ptr, align 8
  %4 = alloca i32, align 4
  store ptr %0, ptr %3, align 8
  %5 = load ptr, ptr %3, align 8
  %6 = call i32 @Ivy_ObjIsCi(ptr noundef %5)
  %7 = icmp ne i32 %6, 0
  br i1 %7, label %8, label %9

8:                                                ; preds = %1
  store i32 999, ptr %2, align 4
  br label %44

9:                                                ; preds = %1
  %10 = load ptr, ptr %3, align 8
  %11 = call i32 @Ivy_ObjIsBuf(ptr noundef %10)
  %12 = icmp ne i32 %11, 0
  br i1 %12, label %13, label %23

13:                                               ; preds = %9
  %14 = load ptr, ptr %3, align 8
  %15 = call ptr @Ivy_ObjFanin0(ptr noundef %14)
  %16 = getelementptr inbounds %struct.Ivy_Obj_t_, ptr %15, i32 0, i32 2
  %17 = load i32, ptr %16, align 8
  %18 = lshr i32 %17, 4
  %19 = and i32 %18, 1
  %20 = icmp ne i32 %19, 0
  %21 = xor i1 %20, true
  %22 = zext i1 %21 to i32
  store i32 %22, ptr %2, align 4
  br label %44

23:                                               ; preds = %9
  %24 = load ptr, ptr %3, align 8
  %25 = call ptr @Ivy_ObjFanin0(ptr noundef %24)
  %26 = getelementptr inbounds %struct.Ivy_Obj_t_, ptr %25, i32 0, i32 2
  %27 = load i32, ptr %26, align 8
  %28 = lshr i32 %27, 4
  %29 = and i32 %28, 1
  %30 = icmp ne i32 %29, 0
  %31 = xor i1 %30, true
  %32 = zext i1 %31 to i32
  %33 = load ptr, ptr %3, align 8
  %34 = call ptr @Ivy_ObjFanin1(ptr noundef %33)
  %35 = getelementptr inbounds %struct.Ivy_Obj_t_, ptr %34, i32 0, i32 2
  %36 = load i32, ptr %35, align 8
  %37 = lshr i32 %36, 4
  %38 = and i32 %37, 1
  %39 = icmp ne i32 %38, 0
  %40 = xor i1 %39, true
  %41 = zext i1 %40 to i32
  %42 = add nsw i32 %32, %41
  store i32 %42, ptr %4, align 4
  %43 = load i32, ptr %4, align 4
  store i32 %43, ptr %2, align 4
  br label %44

44:                                               ; preds = %23, %13, %8
  %45 = load i32, ptr %2, align 4
  ret i32 %45
}