; Function Attrs: mustprogress nofree norecurse nosync nounwind willreturn memory(read, inaccessiblemem: none) uwtable
define range(i32 0, 1000) i32 @Ivy_ManFindBoolCutCost(ptr noundef readonly captures(none) %0) local_unnamed_addr #4 {
  %2 = getelementptr i8, ptr %0, i64 8
  %.val12 = load i32, ptr %2, align 8
  %3 = and i32 %.val12, 15
  switch i32 %3, label %13 [
    i32 4, label %31
    i32 1, label %31
    i32 7, label %4
  ]

4:                                                ; preds = %1
  %5 = getelementptr i8, ptr %0, i64 16
  %.val14 = load ptr, ptr %5, align 8
  %6 = ptrtoint ptr %.val14 to i64
  %7 = and i64 %6, -2
  %8 = inttoptr i64 %7 to ptr
  %9 = getelementptr inbounds nuw i8, ptr %8, i64 8
  %10 = load i32, ptr %9, align 8
  %11 = lshr i32 %10, 4
  %.lobit11 = and i32 %11, 1
  %12 = xor i32 %.lobit11, 1
  br label %31

13:                                               ; preds = %1
  %14 = getelementptr i8, ptr %0, i64 16
  %.val13 = load ptr, ptr %14, align 8
  %15 = ptrtoint ptr %.val13 to i64
  %16 = and i64 %15, -2
  %17 = inttoptr i64 %16 to ptr
  %18 = getelementptr inbounds nuw i8, ptr %17, i64 8
  %19 = load i32, ptr %18, align 8
  %20 = lshr i32 %19, 4
  %.lobit = and i32 %20, 1
  %21 = xor i32 %.lobit, 1
  %22 = getelementptr i8, ptr %0, i64 24
  %.val15 = load ptr, ptr %22, align 8
  %23 = ptrtoint ptr %.val15 to i64
  %24 = and i64 %23, -2
  %25 = inttoptr i64 %24 to ptr
  %26 = getelementptr inbounds nuw i8, ptr %25, i64 8
  %27 = load i32, ptr %26, align 8
  %28 = lshr i32 %27, 4
  %.lobit9 = and i32 %28, 1
  %29 = xor i32 %.lobit9, 1
  %30 = add nuw nsw i32 %29, %21
  br label %31

31:                                               ; preds = %1, %1, %13, %4
  %.0 = phi i32 [ %12, %4 ], [ %30, %13 ], [ 999, %1 ], [ 999, %1 ]
  ret i32 %.0
}